target datalayout = "e-m:e-p270:32:32-p271:32:32-p272:64:64-i64:64-i128:128-f80:128-n8:16:32:64-S128"
target triple = "x86_64-pc-linux-gnu"

%struct.H5G_loc_native_info_t = type { i32, ptr }

@H5G_init_g = external global i8, align 1
@H5_libterm_g = external global i8, align 1
@.str = private unnamed_addr constant [100 x i8] c"generated/home/dtcxzyw/WorkSpace/Projects/compilers/llvm-opt-benchmark/bench/hdf5/hdf5/src/H5Gloc.c\00", align 1
@H5E_FUNC_g = external global i64, align 8
@H5E_CANTINIT_g = external global i64, align 8
@.str.1 = private unnamed_addr constant [32 x i8] c"interface initialization failed\00", align 1
@H5E_SYM_g = external global i64, align 8
@H5E_NOTFOUND_g = external global i64, align 8
@.str.29 = private unnamed_addr constant [18 x i8] c"can't find object\00", align 1
@__func__.H5G_loc_native_info = private unnamed_addr constant [20 x i8] c"H5G_loc_native_info\00", align 1

; Function Attrs: nounwind uwtable
define i32 @H5G_loc_native_info(ptr noundef %0, ptr noundef %1, ptr noundef %2, i32 noundef %3) #0 {
  %5 = alloca ptr, align 8
  %6 = alloca ptr, align 8
  %7 = alloca ptr, align 8
  %8 = alloca i32, align 4
  %9 = alloca %struct.H5G_loc_native_info_t, align 8
  %10 = alloca i32, align 4
  %11 = alloca i8, align 1
  store ptr %0, ptr %5, align 8, !tbaa !9
  store ptr %1, ptr %6, align 8, !tbaa !32
  store ptr %2, ptr %7, align 8, !tbaa !63
  store i32 %3, ptr %8, align 4, !tbaa !7
  call void @llvm.lifetime.start.p0(i64 16, ptr %9) #7
  call void @llvm.lifetime.start.p0(i64 4, ptr %10) #7
  store i32 0, ptr %10, align 4, !tbaa !7
  call void @llvm.lifetime.start.p0(i64 1, ptr %11) #7
  store i8 0, ptr %11, align 1, !tbaa !11
  %12 = load i8, ptr @H5G_init_g, align 1, !tbaa !11, !range !13, !noundef !14
  %13 = trunc i8 %12 to i1
  br i1 %13, label %18, label %14

14:                                               ; preds = %4
  %15 = load i8, ptr @H5_libterm_g, align 1, !tbaa !11, !range !13, !noundef !14
  %16 = trunc i8 %15 to i1
  %17 = xor i1 %16, true
  br label %18

18:                                               ; preds = %14, %4
  %19 = phi i1 [ false, %4 ], [ %17, %14 ]
  %20 = xor i1 %19, true
  %21 = xor i1 %20, true
  %22 = zext i1 %21 to i32
  %23 = sext i32 %22 to i64
  %24 = call i64 @llvm.expect.i64(i64 %23, i64 0)
  %25 = icmp ne i64 %24, 0
  br i1 %25, label %26, label %49

26:                                               ; preds = %18
  store i8 1, ptr @H5G_init_g, align 1, !tbaa !11
  %27 = call i32 @H5G__init_package()
  %28 = icmp slt i32 %27, 0
  br i1 %28, label %29, label %48

29:                                               ; preds = %26
  store i8 0, ptr @H5G_init_g, align 1, !tbaa !11
  br label %30

30:                                               ; preds = %29
  br label %31

31:                                               ; preds = %30
  br label %32

32:                                               ; preds = %31
  %33 = load i64, ptr @H5E_FUNC_g, align 8, !tbaa !15
  %34 = load i64, ptr @H5E_CANTINIT_g, align 8, !tbaa !15
  %35 = call i32 (ptr, ptr, i32, i64, i64, ptr, ...) @H5E_printf_stack(ptr noundef @.str, ptr noundef @__func__.H5G_loc_native_info, i32 noundef 812, i64 noundef %33, i64 noundef %34, ptr noundef @.str.1)
  br label %36

36:                                               ; preds = %32
  br label %37

37:                                               ; preds = %36
  store i8 1, ptr %11, align 1, !tbaa !11
  %38 = load i8, ptr %11, align 1, !tbaa !11, !range !13, !noundef !14
  %39 = trunc i8 %38 to i1
  %40 = zext i1 %39 to i8
  store i8 %40, ptr %11, align 1, !tbaa !11
  br label %41

41:                                               ; preds = %37
  br label %42

42:                                               ; preds = %41
  br label %43

43:                                               ; preds = %42
  store i32 -1, ptr %10, align 4, !tbaa !7
  br label %93

44:                                               ; No predecessors!
  br label %45

45:                                               ; preds = %44
  br label %46

46:                                               ; preds = %45
  br label %47

47:                                               ; preds = %46
  br label %48

48:                                               ; preds = %47, %26
  br label %49

49:                                               ; preds = %48, %18
  %50 = load i8, ptr @H5G_init_g, align 1, !tbaa !11, !range !13, !noundef !14
  %51 = trunc i8 %50 to i1
  br i1 %51, label %56, label %52

52:                                               ; preds = %49
  %53 = load i8, ptr @H5_libterm_g, align 1, !tbaa !11, !range !13, !noundef !14
  %54 = trunc i8 %53 to i1
  %55 = xor i1 %54, true
  br label %56

56:                                               ; preds = %52, %49
  %57 = phi i1 [ true, %49 ], [ %55, %52 ]
  %58 = xor i1 %57, true
  %59 = xor i1 %58, true
  %60 = zext i1 %59 to i32
  %61 = sext i32 %60 to i64
  %62 = call i64 @llvm.expect.i64(i64 %61, i64 1)
  %63 = icmp ne i64 %62, 0
  br i1 %63, label %64, label %94

64:                                               ; preds = %56
  %65 = load i32, ptr %8, align 4, !tbaa !7
  %66 = getelementptr inbounds nuw %struct.H5G_loc_native_info_t, ptr %9, i32 0, i32 0
  store i32 %65, ptr %66, align 8, !tbaa !65
  %67 = load ptr, ptr %7, align 8, !tbaa !63
  %68 = getelementptr inbounds nuw %struct.H5G_loc_native_info_t, ptr %9, i32 0, i32 1
  store ptr %67, ptr %68, align 8, !tbaa !67
  %69 = load ptr, ptr %5, align 8, !tbaa !9
  %70 = load ptr, ptr %6, align 8, !tbaa !32
  %71 = call i32 @H5G_traverse(ptr noundef %69, ptr noundef %70, i32 noundef 0, ptr noundef @H5G__loc_native_info_cb, ptr noundef %9)
  %72 = icmp slt i32 %71, 0
  br i1 %72, label %73, label %92

73:                                               ; preds = %64
  br label %74

74:                                               ; preds = %73
  br label %75

75:                                               ; preds = %74
  br label %76

76:                                               ; preds = %75
  %77 = load i64, ptr @H5E_SYM_g, align 8, !tbaa !15
  %78 = load i64, ptr @H5E_NOTFOUND_g, align 8, !tbaa !15
  %79 = call i32 (ptr, ptr, i32, i64, i64, ptr, ...) @H5E_printf_stack(ptr noundef @.str, ptr noundef @__func__.H5G_loc_native_info, i32 noundef 825, i64 noundef %77, i64 noundef %78, ptr noundef @.str.29)
  br label %80

80:                                               ; preds = %76
  br label %81

81:                                               ; preds = %80
  store i8 1, ptr %11, align 1, !tbaa !11
  %82 = load i8, ptr %11, align 1, !tbaa !11, !range !13, !noundef !14
  %83 = trunc i8 %82 to i1
  %84 = zext i1 %83 to i8
  store i8 %84, ptr %11, align 1, !tbaa !11
  br label %85

85:                                               ; preds = %81
  br label %86

86:                                               ; preds = %85
  br label %87

87:                                               ; preds = %86
  store i32 -1, ptr %10, align 4, !tbaa !7
  br label %93

88:                                               ; No predecessors!
  br label %89

89:                                               ; preds = %88
  br label %90

90:                                               ; preds = %89
  br label %91

91:                                               ; preds = %90
  br label %92

92:                                               ; preds = %91, %64
  br label %93

93:                                               ; preds = %92, %87, %43
  br label %94

94:                                               ; preds = %93, %56
  %95 = load i32, ptr %10, align 4, !tbaa !7
  call void @llvm.lifetime.end.p0(i64 1, ptr %11) #7
  call void @llvm.lifetime.end.p0(i64 4, ptr %10) #7
  call void @llvm.lifetime.end.p0(i64 16, ptr %9) #7
  ret i32 %95
}